Microchip MPLAB XC8 Compiler V2.36

Linker command line:

-W-3 --edf=C:\Program Files\Microchip\xc8\v2.36\pic\dat\en_msgs.txt -cn \
  -h+dist/default/production\SUPORTE_PELCO_D.X.production.sym \
  --cmf=dist/default/production\SUPORTE_PELCO_D.X.production.cmf -z \
  -Q16F648A -oC:\Users\Robson\AppData\Local\Temp\xcAscuc.4 \
  --defsym=__MPLAB_BUILD=1 \
  -Mdist/default/production/SUPORTE_PELCO_D.X.production.map \
  --md=C:\Users\Robson\AppData\Local\Temp\xcAscuc.dat -E1 -ver=XC8 Compiler \
  --acfsm=1493 -ACODE=00h-07FFhx2 -ASTRCODE=00h-0FFFh -ASTRING=00h-0FFhx16 \
  -ACONST=00h-0FFhx16 -AENTRY=00h-0FFhx16 -ACOMMON=070h-07Fh \
  -ABANK0=020h-06Fh -ABANK1=0A0h-0EFh -ABANK2=0120h-016Fh \
  -ARAM=020h-06Fh,0A0h-0EFh,0120h-016Fh \
  -AABS1=020h-07Fh,0A0h-0EFh,0120h-016Fh -ASFR0=00h-01Fh -ASFR1=080h-09Fh \
  -ASFR2=0100h-011Fh -ASFR3=0180h-01EFh -ACONFIG=02007h-02007h -DCONFIG=2 \
  -AIDLOC=02000h-02003h -DIDLOC=2 -AEEDATA=00h-0FFh/02100h \
  -peeprom_data=EEDATA -DEEDATA=2 -DCODE=2 -DSTRCODE=2 -DSTRING=2 -DCONST=2 \
  -DENTRY=2 -preset_vec=00h,intentry=04h,init,end_init -ppowerup=CODE \
  -pcinit=CODE -pfunctab=ENTRY -k \
  C:\Users\Robson\AppData\Local\Temp\xcAscuc.o \
  dist/default/production\SUPORTE_PELCO_D.X.production.o 

Object code version is 3.11

Machine type is 16F648A



                Name                               Link     Load   Length Selector   Space Scale
C:\Users\Robson\AppData\Local\Temp\xcAscuc.o
                end_init                             11       11        2        8       0
                reset_vec                             0        0        2        0       0
                config                             2007     2007        1        0       4
dist/default/production\SUPORTE_PELCO_D.X.production.o
                cinit                                13       13       11        8       0
                intentry                              4        4        D        8       0
                config                             2007     2007        1        0       4
                text9                               4B7      4B7       67      96E       0
                text8                               55A      55A       3C      96E       0
                text7                               212      212      1C8        8       0
                text6                               596      596       3B      96E       0
                text5                               61D      61D       11      96E       0
                text4                               609      609       14      96E       0
                text3                               51E      51E       3C      96E       0
                text2                               5D1      5D1       23      96E       0
                text1                               5F4      5F4       15      96E       0
                maintext                             24       24      1EE        8       0
                cstackBANK0                          53       53       15       20       1
                cstackCOMMON                         70       70        D       70       1
                clrtext                             62E      62E        8      96E       0
                bssBANK1                             A0       A0       1C       A0       1
                bssBANK0                             20       20       33       20       1
                bssCOMMON                            7D       7D        1       70       1
                nvBANK0                              68       68        2       20       1
                strings                             400      400       B7      800       0

TOTAL           Name                               Link     Load   Length     Space
        CLASS   CODE           
                end_init                             11       11        2         0
                cinit                                13       13       11         0
                intentry                              4        4        D         0
                reset_vec                             0        0        2         0
                text9                               4B7      4B7       67         0
                text8                               55A      55A       3C         0
                text7                               212      212      1C8         0
                text6                               596      596       3B         0
                text5                               61D      61D       11         0
                text4                               609      609       14         0
                text3                               51E      51E       3C         0
                text2                               5D1      5D1       23         0
                text1                               5F4      5F4       15         0
                maintext                             24       24      1EE         0
                clrtext                             62E      62E        8         0

        CLASS   STRCODE        

        CLASS   STRING         
                strings                             400      400       B7         0

        CLASS   CONST          

        CLASS   ENTRY          

        CLASS   COMMON         
                cstackCOMMON                         70       70        D         1
                bssCOMMON                            7D       7D        1         1

        CLASS   BANK0          
                cstackBANK0                          53       53       15         1
                bssBANK0                             20       20       33         1
                nvBANK0                              68       68        2         1

        CLASS   BANK1          
                bssBANK1                             A0       A0       1C         1

        CLASS   BANK2          

        CLASS   RAM            

        CLASS   ABS1           
                abs_s1                               7E       7E        2         1

        CLASS   SFR0           

        CLASS   SFR1           

        CLASS   SFR2           

        CLASS   SFR3           

        CLASS   CONFIG         
                config                             2007     2007        1         4

        CLASS   IDLOC          

        CLASS   EEDATA         

        CLASS   BANK3          

        CLASS   STACK          



SEGMENTS        Name                           Load    Length   Top    Selector   Space  Class     Delta

                reset_vec                      000000  000002  000002         0       0  CODE        2
                intentry                       000004  0003D6  0003DA         8       0  CODE        2
                bssBANK0                       000020  00004A  00006A        20       1  BANK0       1
                cstackCOMMON                   000070  00000E  00007E        70       1  COMMON      1
                bssBANK1                       0000A0  00001C  0000BC        A0       1  BANK1       1
                strings                        000400  0000B7  0004B7       800       0  STRING      2
                text9                          0004B7  00017F  000636       96E       0  CODE        2


UNUSED ADDRESS RANGES

        Name                Unused          Largest block    Delta
        BANK0            006A-006F              6           1
        BANK1            00BC-00EF             34           1
        BANK2            0120-016F             50           1
        CODE             0002-0003              2           2
                         03DA-03FF             26
                         0636-0FFF            1CA
        CONST            0002-0003              2           2
                         03DA-03FF             26
                         0636-0FFF            100
        EEDATA           2100-21FF            100           2
        ENTRY            0002-0003              2           2
                         03DA-03FF             26
                         0636-0FFF            100
        IDLOC            2000-2003              4           2
        RAM              006A-006F              6           1
                         00BC-00EF             34
                         0120-016F             50
        SFR0             0000-001F             20           1
        SFR1             0080-009F             20           1
        SFR2             0100-011F             20           1
        SFR3             0180-01EF             70           1
        STRCODE          0002-0003              2           2
                         03DA-03FF             26
                         0636-0FFF            9CA
        STRING           0002-0003              2           2
                         03DA-03FF             26
                         0636-0FFF            100

                                  Symbol Table

?___awdiv                cstackCOMMON 0070
SPEED_calc@sp_calc       cstackCOMMON 007C
SPEED_calc@speed         cstackCOMMON 007B
UART_Init@baudrate       cstackBANK0  0058
UART_Write@data          cstackBANK0  005C
UART_Write@timeout       cstackBANK0  005D
UART_Write_Text@i        cstackBANK0  0061
UART_Write_Text@text     cstackBANK0  0063
_BRGH                    (abs)        04C2
_CMCON                   (abs)        001F
_CREN                    (abs)        00C4
_INTCONbits              (abs)        000B
_MOTOR_Init              text6        0596
_OPTION_REGbits          (abs)        0081
_PCONbits                (abs)        008E
_PIE1bits                (abs)        008C
_PIR1bits                (abs)        000C
_PORTA                   (abs)        0005
_PORTAbits               (abs)        0005
_PORTB                   (abs)        0006
_PORTBbits               (abs)        0006
_P_addr                  bssBANK0     004B
_P_chksum                bssBANK0     0046
_P_cmd1                  bssBANK0     004A
_P_cmd2                  bssBANK0     0049
_P_dat1                  bssBANK0     0048
_P_dat2                  bssBANK0     0047
_RCREG                   (abs)        001A
_SPBRG                   (abs)        0099
_SPEED_calc              text8        055A
_SPEN                    (abs)        00C7
_SYNC                    (abs)        04C4
_T1CONbits               (abs)        0010
_TIMER1_Init             text5        061D
_TMR1H                   (abs)        000F
_TMR1L                   (abs)        000E
_TRISA                   (abs)        0085
_TRISB                   (abs)        0086
_TRMT                    (abs)        04C1
_TXEN                    (abs)        04C5
_TXREG                   (abs)        0019
_UART_Init               text4        0609
_UART_Write              text3        051E
_UART_Write_Text         text2        05D1
_UC_Init                 text1        05F4
__Habs1                  abs1         0000
__Hbank0                 bank0        0000
__Hbank1                 bank1        0000
__Hbank2                 bank2        0000
__Hbank3                 bank3        0000
__HbssBANK0              bssBANK0     0000
__HbssBANK1              bssBANK1     0000
__HbssCOMMON             bssCOMMON    0000
__Hcinit                 cinit        0024
__Hclrtext               clrtext      0000
__Hcode                  code         0000
__Hcommon                common       0000
__Hconfig                config       2008
__HcstackBANK0           cstackBANK0  0000
__HcstackCOMMON          cstackCOMMON 0000
__Heeprom_data           eeprom_data  0000
__Hend_init              end_init     0013
__Hfunctab               functab      0000
__Hinit                  init         0011
__Hintentry              intentry     0011
__Hmaintext              maintext     0000
__HnvBANK0               nvBANK0      0000
__Hpowerup               powerup      0000
__Hram                   ram          0000
__Hreset_vec             reset_vec    0002
__Hsfr0                  sfr0         0000
__Hsfr1                  sfr1         0000
__Hsfr2                  sfr2         0000
__Hsfr3                  sfr3         0000
__Hspace_0               (abs)        0636
__Hspace_1               (abs)        00BC
__Hspace_2               (abs)        0000
__Hspace_3               (abs)        0000
__Hspace_4               (abs)        400F
__Hstack                 stack        0000
__Hstrings               strings      0000
__Htext                  text         0000
__Labs1                  abs1         0000
__Lbank0                 bank0        0000
__Lbank1                 bank1        0000
__Lbank2                 bank2        0000
__Lbank3                 bank3        0000
__LbssBANK0              bssBANK0     0000
__LbssBANK1              bssBANK1     0000
__LbssCOMMON             bssCOMMON    0000
__Lcinit                 cinit        0013
__Lclrtext               clrtext      0000
__Lcode                  code         0000
__Lcommon                common       0000
__Lconfig                config       0000
__LcstackBANK0           cstackBANK0  0000
__LcstackCOMMON          cstackCOMMON 0000
__Leeprom_data           eeprom_data  0000
__Lend_init              end_init     0011
__Lfunctab               functab      0000
__Linit                  init         0011
__Lintentry              intentry     0004
__Lmaintext              maintext     0000
__LnvBANK0               nvBANK0      0000
__Lpowerup               powerup      0000
__Lram                   ram          0000
__Lreset_vec             reset_vec    0000
__Lsfr0                  sfr0         0000
__Lsfr1                  sfr1         0000
__Lsfr2                  sfr2         0000
__Lsfr3                  sfr3         0000
__Lspace_0               (abs)        0000
__Lspace_1               (abs)        0000
__Lspace_2               (abs)        0000
__Lspace_3               (abs)        0000
__Lspace_4               (abs)        0000
__Lstack                 stack        0000
__Lstrings               strings      0000
__Ltext                  text         0000
__S0                     (abs)        0636
__S1                     (abs)        00BC
__S3                     (abs)        0000
___awdiv                 text9        04B7
___awdiv@counter         cstackCOMMON 0075
___awdiv@dividend        cstackCOMMON 0072
___awdiv@divisor         cstackCOMMON 0070
___awdiv@quotient        cstackCOMMON 0077
___awdiv@sign            cstackCOMMON 0076
___int_sp                stack        0000
___latbits               (abs)        0001
___sp                    stack        0000
___stackhi               (abs)        0000
___stacklo               (abs)        0000
__end_of_MOTOR_Init      text6        05D1
__end_of_SPEED_calc      text8        0596
__end_of_TIMER1_Init     text5        062E
__end_of_UART_Init       text4        061D
__end_of_UART_Write      text3        055A
__end_of_UART_Write_Text text2        05F4
__end_of_UC_Init         text1        0609
__end_of___awdiv         text9        051E
__end_of__initialization cinit        0021
__end_of__stringtab      strings      0406
__end_of_main            maintext     0212
__end_of_myISR           text7        03DA
__end_of_speed_ref       strings      040E
__end_of_steps_1A        strings      042E
__end_of_steps_1B        strings      0426
__end_of_steps_2A        strings      041E
__end_of_steps_2B        strings      0416
__initialization         cinit        0013
__pbssBANK0              bssBANK0     0020
__pbssBANK1              bssBANK1     00A0
__pbssCOMMON             bssCOMMON    007D
__pcstackBANK0           cstackBANK0  0053
__pcstackCOMMON          cstackCOMMON 0070
__pintentry              intentry     0004
__pmaintext              maintext     0024
__pnvBANK0               nvBANK0      0068
__pstrings               strings      0400
__ptext1                 text1        05F4
__ptext2                 text2        05D1
__ptext3                 text3        051E
__ptext4                 text4        0609
__ptext5                 text5        061D
__ptext6                 text6        0596
__ptext7                 text7        0212
__ptext8                 text8        055A
__ptext9                 text9        04B7
__stringbase             strings      0405
__stringtab              strings      0400
_buffer_data0            bssBANK0     0027
_buffer_data1            bssBANK1     00B5
_buffer_data2            bssBANK1     00AE
_buffer_data3            bssBANK1     00A7
_buffer_data4            bssBANK1     00A0
_buffer_index1           bssBANK0     0051
_buffer_index2           bssCOMMON    007D
_buffer_ready            bssBANK0     002E
_data_receiv             bssBANK0     0052
_frame_data              bssBANK0     0020
_frame_index             bssBANK0     004E
_header_cnt              bssBANK0     0050
_main                    maintext     0024
_myISR                   text7        0212
_pan_counter             bssBANK0     0035
_pan_direction           nvBANK0      0068
_pan_enabled             nvBANK0      0069
_pan_speed               bssBANK0     0043
_pan_speed_old           bssBANK0     0042
_pan_step_phase          bssBANK0     003C
_preset_enabled          bssBANK0     0044
_preset_id               bssBANK0     0045
_response_type           bssBANK0     004C
_steps_1A                strings      0426
_steps_1B                strings      041E
_steps_2A                strings      0416
_steps_2B                strings      040E
_tilt_counter            bssBANK0     0033
_tilt_direction          bssBANK0     0040
_tilt_enabled            bssBANK0     0041
_tilt_speed              bssBANK0     003F
_tilt_speed_old          bssBANK0     003E
_tilt_step_phase         bssBANK0     003B
_timeout_receiv          bssBANK0     004F
_timer1_pan              bssBANK0     003A
_timer1_pan_ref          bssBANK0     0038
_timer1_tilt             bssBANK0     0039
_timer1_tilt_ref         bssBANK0     0037
btemp                    (abs)        007E
clear_ram0               clrtext      062E
end_of_initialization    cinit        0021
interrupt_function       intentry     0004
intlevel0                functab      0000
intlevel1                functab      0000
intlevel2                functab      0000
intlevel3                functab      0000
intlevel4                functab      0000
intlevel5                functab      0000
main@chksum_calc         cstackBANK0  0065
main@i                   cstackBANK0  0067
main@m                   cstackBANK0  0066
reset_vec                reset_vec    0000
saved_w                  (abs)        007E
start                    init         0011
start_initialization     cinit        0013
wtemp0                   (abs)        007E


MODULE INFORMATION

Module		Function		Class		Link	Load	Size
usart.c
		_UART_Init     		CODE           	0609	0000	20
		_UART_Write_Text		CODE           	05D1	0000	35
		_UART_Write    		CODE           	051E	0000	60

usart.c estimated size: 115

C:\Program Files\Microchip\xc8\v2.36\pic\sources\c90\common\awdiv.c
		___awdiv       		CODE           	04B7	0000	103

C:\Program Files\Microchip\xc8\v2.36\pic\sources\c90\common\awdiv.c estimated size: 103

shared
		_speed_ref     		STRING         	0000	0000	0
		__stringtab    		STRING         	0400	0000	6
		__initialization		CODE           	0013	0000	14
		_steps_2A      		STRING         	0416	0000	8
		_steps_2B      		STRING         	040E	0000	8
		_steps_1A      		STRING         	0426	0000	8
		_steps_1B      		STRING         	041E	0000	8

shared estimated size: 52

main.c
		_MOTOR_Init    		CODE           	0596	0000	59
		_SPEED_calc    		CODE           	055A	0000	60
		_TIMER1_Init   		CODE           	061D	0000	17
		_myISR         		CODE           	0212	0000	456
		_main          		CODE           	0024	0000	494
		_UC_Init       		CODE           	05F4	0000	21

main.c estimated size: 1107

